target datalayout = "e-m:e-p270:32:32-p271:32:32-p272:64:64-i64:64-i128:128-f80:128-n8:16:32:64-S128"
target triple = "x86_64-pc-linux-gnu"

%struct.AVRational = type { i32, i32 }
%struct.AVFormatContext = type { ptr, ptr, ptr, ptr, ptr, i32, i32, ptr, i32, ptr, i32, ptr, ptr, i64, i64, i64, i32, i32, i32, i64, i64, ptr, i32, i32, ptr, i32, i32, i32, i32, ptr, i64, i32, i32, %struct.AVIOInterruptCB, i32, i32, i32, i32, i64, i32, i32, i32, i32, i32, i32, i32, i32, i32, i32, i32, i32, i64, i32, i32, i32, i32, i32, ptr, ptr, ptr, ptr, i32, ptr, ptr, ptr, ptr, i32, ptr, ptr, i64, ptr, ptr, ptr, i64 }
%struct.AVIOInterruptCB = type { ptr, ptr }
%struct.GXFStreamContext = type { i64, i32, i32, i32, i16, i16, i32, i32, i32, i32, i32, i32, i32, i32, i32, i32 }
%struct.AVStream = type { ptr, i32, i32, ptr, ptr, %struct.AVRational, i64, i64, i64, i32, i32, %struct.AVRational, ptr, %struct.AVRational, %struct.AVPacket, i32, %struct.AVRational, i32 }
%struct.AVPacket = type { ptr, i64, i64, ptr, i32, i32, i32, ptr, i32, i64, i64, ptr, ptr, %struct.AVRational }
%struct.AVCodecParameters = type { i32, i32, i32, ptr, i32, ptr, i32, i32, i64, i32, i32, i32, i32, i32, i32, %struct.AVRational, %struct.AVRational, i32, i32, i32, i32, i32, i32, i32, %struct.AVChannelLayout, i32, i32, i32, i32, i32, i32 }
%struct.AVChannelLayout = type { i32, i32, %union.anon, ptr }
%union.anon = type { i64 }

; Function Attrs: nounwind uwtable
define internal i32 @gxf_interleave_packet(ptr noundef %0, ptr noundef %1, i32 noundef %2, i32 noundef %3) #0 {
  %5 = alloca i32, align 4
  %6 = alloca ptr, align 8
  %7 = alloca ptr, align 8
  %8 = alloca i32, align 4
  %9 = alloca i32, align 4
  %10 = alloca i32, align 4
  %11 = alloca ptr, align 8
  %12 = alloca ptr, align 8
  %13 = alloca i32, align 4
  store ptr %0, ptr %6, align 8, !tbaa !4
  store ptr %1, ptr %7, align 8, !tbaa !91
  store i32 %2, ptr %8, align 4, !tbaa !32
  store i32 %3, ptr %9, align 4, !tbaa !32
  call void @llvm.lifetime.start.p0(i64 4, ptr %10) #10
  %14 = load i32, ptr %9, align 4, !tbaa !32
  %15 = icmp ne i32 %14, 0
  br i1 %15, label %16, label %68

16:                                               ; preds = %4
  call void @llvm.lifetime.start.p0(i64 8, ptr %11) #10
  %17 = load ptr, ptr %6, align 8, !tbaa !4
  %18 = getelementptr inbounds nuw %struct.AVFormatContext, ptr %17, i32 0, i32 7
  %19 = load ptr, ptr %18, align 8, !tbaa !47
  %20 = load ptr, ptr %7, align 8, !tbaa !91
  %21 = getelementptr inbounds nuw %struct.AVPacket, ptr %20, i32 0, i32 5
  %22 = load i32, ptr %21, align 4, !tbaa !93
  %23 = sext i32 %22 to i64
  %24 = getelementptr inbounds ptr, ptr %19, i64 %23
  %25 = load ptr, ptr %24, align 8, !tbaa !48
  store ptr %25, ptr %11, align 8, !tbaa !48
  call void @llvm.lifetime.start.p0(i64 8, ptr %12) #10
  %26 = load ptr, ptr %11, align 8, !tbaa !48
  %27 = getelementptr inbounds nuw %struct.AVStream, ptr %26, i32 0, i32 4
  %28 = load ptr, ptr %27, align 8, !tbaa !50
  store ptr %28, ptr %12, align 8, !tbaa !30
  %29 = load ptr, ptr %11, align 8, !tbaa !48
  %30 = getelementptr inbounds nuw %struct.AVStream, ptr %29, i32 0, i32 3
  %31 = load ptr, ptr %30, align 8, !tbaa !56
  %32 = getelementptr inbounds nuw %struct.AVCodecParameters, ptr %31, i32 0, i32 0
  %33 = load i32, ptr %32, align 8, !tbaa !61
  %34 = icmp eq i32 %33, 0
  br i1 %34, label %35, label %44

35:                                               ; preds = %16
  %36 = load ptr, ptr %12, align 8, !tbaa !30
  %37 = getelementptr inbounds nuw %struct.GXFStreamContext, ptr %36, i32 0, i32 0
  %38 = load i64, ptr %37, align 8, !tbaa !103
  %39 = mul nsw i64 %38, 2
  %40 = load ptr, ptr %7, align 8, !tbaa !91
  %41 = getelementptr inbounds nuw %struct.AVPacket, ptr %40, i32 0, i32 2
  store i64 %39, ptr %41, align 8, !tbaa !104
  %42 = load ptr, ptr %7, align 8, !tbaa !91
  %43 = getelementptr inbounds nuw %struct.AVPacket, ptr %42, i32 0, i32 1
  store i64 %39, ptr %43, align 8, !tbaa !105
  br label %53

44:                                               ; preds = %16
  %45 = load ptr, ptr %12, align 8, !tbaa !30
  %46 = getelementptr inbounds nuw %struct.GXFStreamContext, ptr %45, i32 0, i32 0
  %47 = load i64, ptr %46, align 8, !tbaa !103
  %48 = mul nsw i64 %47, 32768
  %49 = load ptr, ptr %7, align 8, !tbaa !91
  %50 = getelementptr inbounds nuw %struct.AVPacket, ptr %49, i32 0, i32 2
  store i64 %48, ptr %50, align 8, !tbaa !104
  %51 = load ptr, ptr %7, align 8, !tbaa !91
  %52 = getelementptr inbounds nuw %struct.AVPacket, ptr %51, i32 0, i32 1
  store i64 %48, ptr %52, align 8, !tbaa !105
  br label %53

53:                                               ; preds = %44, %35
  %54 = load ptr, ptr %12, align 8, !tbaa !30
  %55 = getelementptr inbounds nuw %struct.GXFStreamContext, ptr %54, i32 0, i32 0
  %56 = load i64, ptr %55, align 8, !tbaa !103
  %57 = add nsw i64 %56, 1
  store i64 %57, ptr %55, align 8, !tbaa !103
  %58 = load ptr, ptr %6, align 8, !tbaa !4
  %59 = load ptr, ptr %7, align 8, !tbaa !91
  %60 = call i32 @ff_interleave_add_packet(ptr noundef %58, ptr noundef %59, ptr noundef @gxf_compare_field_nb)
  store i32 %60, ptr %10, align 4, !tbaa !32
  %61 = icmp slt i32 %60, 0
  br i1 %61, label %62, label %64

62:                                               ; preds = %53
  %63 = load i32, ptr %10, align 4, !tbaa !32
  store i32 %63, ptr %5, align 4
  store i32 1, ptr %13, align 4
  br label %65

64:                                               ; preds = %53
  store i32 0, ptr %13, align 4
  br label %65

65:                                               ; preds = %64, %62
  call void @llvm.lifetime.end.p0(i64 8, ptr %12) #10
  call void @llvm.lifetime.end.p0(i64 8, ptr %11) #10
  %66 = load i32, ptr %13, align 4
  switch i32 %66, label %73 [
    i32 0, label %67
  ]

67:                                               ; preds = %65
  br label %68

68:                                               ; preds = %67, %4
  %69 = load ptr, ptr %6, align 8, !tbaa !4
  %70 = load ptr, ptr %7, align 8, !tbaa !91
  %71 = load i32, ptr %8, align 4, !tbaa !32
  %72 = call i32 @ff_interleave_packet_per_dts(ptr noundef %69, ptr noundef %70, i32 noundef %71, i32 noundef 0)
  store i32 %72, ptr %5, align 4
  store i32 1, ptr %13, align 4
  br label %73

73:                                               ; preds = %68, %65
  call void @llvm.lifetime.end.p0(i64 4, ptr %10) #10
  %74 = load i32, ptr %5, align 4
  ret i32 %74
}