; Function Attrs: nounwind uwtable
define internal i32 @gxf_interleave_packet(ptr noundef %0, ptr noundef %1, i32 noundef %2, i32 noundef %3) #0 {
  %.not = icmp eq i32 %3, 0
  br i1 %.not, label %26, label %5

5:                                                ; preds = %4
  %6 = getelementptr inbounds nuw i8, ptr %0, i64 48
  %7 = load ptr, ptr %6, align 8, !tbaa !37
  %8 = getelementptr inbounds nuw i8, ptr %1, i64 36
  %9 = load i32, ptr %8, align 4, !tbaa !86
  %10 = sext i32 %9 to i64
  %11 = getelementptr inbounds ptr, ptr %7, i64 %10
  %12 = load ptr, ptr %11, align 8, !tbaa !38
  %13 = getelementptr inbounds nuw i8, ptr %12, i64 24
  %14 = load ptr, ptr %13, align 8, !tbaa !40
  %15 = getelementptr inbounds nuw i8, ptr %12, i64 16
  %16 = load ptr, ptr %15, align 8, !tbaa !46
  %17 = load i32, ptr %16, align 8, !tbaa !51
  %18 = icmp eq i32 %17, 0
  %19 = load i64, ptr %14, align 8, !tbaa !101
  %. = select i1 %18, i64 1, i64 15
  %20 = shl nsw i64 %19, %.
  %21 = getelementptr inbounds nuw i8, ptr %1, i64 16
  store i64 %20, ptr %21, align 8, !tbaa !89
  %22 = getelementptr inbounds nuw i8, ptr %1, i64 8
  store i64 %20, ptr %22, align 8, !tbaa !102
  %23 = add nsw i64 %19, 1
  store i64 %23, ptr %14, align 8, !tbaa !101
  %24 = tail call i32 @ff_interleave_add_packet(ptr noundef nonnull %0, ptr noundef nonnull %1, ptr noundef nonnull @gxf_compare_field_nb) #10
  %25 = icmp sgt i32 %24, -1
  br i1 %25, label %26, label %28

26:                                               ; preds = %5, %4
  %27 = tail call i32 @ff_interleave_packet_per_dts(ptr noundef %0, ptr noundef %1, i32 noundef %2, i32 noundef 0) #10
  br label %28

28:                                               ; preds = %5, %26
  %.1 = phi i32 [ %27, %26 ], [ %24, %5 ]
  ret i32 %.1
}